target datalayout = "e-m:e-p270:32:32-p271:32:32-p272:64:64-i64:64-i128:128-f80:128-n8:16:32:64-S128"
target triple = "x86_64-pc-linux-gnu"

@stderr = external global ptr, align 8
@.str = private unnamed_addr constant [24 x i8] c"Decoding of %s failed.\0A\00", align 1
@.str.1 = private unnamed_addr constant [11 x i8] c"Status: %d\00", align 1
@.str.2 = private unnamed_addr constant [5 x i8] c"(%s)\00", align 1
@kStatusMessages = internal constant [8 x ptr] [ptr @.str.8, ptr @.str.9, ptr @.str.10, ptr @.str.11, ptr @.str.12, ptr @.str.13, ptr @.str.14, ptr @.str.15], align 16
@.str.3 = private unnamed_addr constant [2 x i8] c"\0A\00", align 1

; Function Attrs: nounwind uwtable
define hidden void @PrintWebPError(ptr noundef %0, i32 noundef %1) #0 {
  %3 = alloca ptr, align 8
  %4 = alloca i32, align 4
  store ptr %0, ptr %3, align 8, !tbaa !4
  store i32 %1, ptr %4, align 4, !tbaa !9
  %5 = load ptr, ptr @stderr, align 8, !tbaa !11
  %6 = load ptr, ptr %3, align 8, !tbaa !4
  %7 = call i32 (ptr, ptr, ...) @fprintf(ptr noundef %5, ptr noundef @.str, ptr noundef %6) #5
  %8 = load ptr, ptr @stderr, align 8, !tbaa !11
  %9 = load i32, ptr %4, align 4, !tbaa !9
  %10 = call i32 (ptr, ptr, ...) @fprintf(ptr noundef %8, ptr noundef @.str.1, i32 noundef %9) #5
  %11 = load i32, ptr %4, align 4, !tbaa !9
  %12 = icmp sge i32 %11, 0
  br i1 %12, label %13, label %23

13:                                               ; preds = %2
  %14 = load i32, ptr %4, align 4, !tbaa !9
  %15 = icmp sle i32 %14, 7
  br i1 %15, label %16, label %23

16:                                               ; preds = %13
  %17 = load ptr, ptr @stderr, align 8, !tbaa !11
  %18 = load i32, ptr %4, align 4, !tbaa !9
  %19 = sext i32 %18 to i64
  %20 = getelementptr inbounds [8 x ptr], ptr @kStatusMessages, i64 0, i64 %19
  %21 = load ptr, ptr %20, align 8, !tbaa !4
  %22 = call i32 (ptr, ptr, ...) @fprintf(ptr noundef %17, ptr noundef @.str.2, ptr noundef %21) #5
  br label %23

23:                                               ; preds = %16, %13, %2
  %24 = load ptr, ptr @stderr, align 8, !tbaa !11
  %25 = call i32 (ptr, ptr, ...) @fprintf(ptr noundef %24, ptr noundef @.str.3) #5
  ret void
}