; Function Attrs: cold nofree nounwind uwtable
define hidden void @PrintWebPError(ptr noundef %0, i32 noundef %1) local_unnamed_addr #0 {
  %3 = load ptr, ptr @stderr, align 8, !tbaa !4
  %4 = tail call i32 (ptr, ptr, ...) @fprintf(ptr noundef %3, ptr noundef nonnull @.str, ptr noundef %0) #6
  %5 = load ptr, ptr @stderr, align 8, !tbaa !4
  %6 = tail call i32 (ptr, ptr, ...) @fprintf(ptr noundef %5, ptr noundef nonnull @.str.1, i32 noundef %1) #6
  %or.cond = icmp ult i32 %1, 8
  br i1 %or.cond, label %7, label %13

7:                                                ; preds = %2
  %8 = load ptr, ptr @stderr, align 8, !tbaa !4
  %9 = zext nneg i32 %1 to i64
  %10 = getelementptr inbounds nuw [8 x ptr], ptr @kStatusMessages, i64 0, i64 %9
  %11 = load ptr, ptr %10, align 8, !tbaa !9
  %12 = tail call i32 (ptr, ptr, ...) @fprintf(ptr noundef %8, ptr noundef nonnull @.str.2, ptr noundef %11) #6
  br label %13

13:                                               ; preds = %7, %2
  %14 = load ptr, ptr @stderr, align 8, !tbaa !4
  %fputc = tail call i32 @fputc(i32 10, ptr %14)
  ret void
}